target datalayout = "e-m:e-p270:32:32-p271:32:32-p272:64:64-i64:64-i128:128-f80:128-n8:16:32:64-S128"
target triple = "x86_64-unknown-linux-gnu"

@.str.108 = private unnamed_addr constant [10 x i8] c"*UNKNOWN*\00", align 1

; Function Attrs: nounwind sspstrong uwtable
define dso_local ptr @scsi_command_name(i8 noundef zeroext %cmd) #0 {
entry:
  %retval = alloca ptr, align 8
  %cmd.addr = alloca i8, align 1
  store i8 %cmd, ptr %cmd.addr, align 1
  %0 = load i8, ptr %cmd.addr, align 1
  %conv = zext i8 %0 to i64
  %cmp = icmp uge i64 %conv, 192
  br i1 %cmp, label %if.then, label %lor.lhs.false

lor.lhs.false:                                    ; preds = %entry
  %1 = load i8, ptr %cmd.addr, align 1
  %idxprom = zext i8 %1 to i64
  %arrayidx = getelementptr [192 x ptr], ptr @scsi_command_name.names, i64 0, i64 %idxprom
  %2 = load ptr, ptr %arrayidx, align 8
  %cmp2 = icmp eq ptr %2, null
  br i1 %cmp2, label %if.then, label %if.end

if.then:                                          ; preds = %lor.lhs.false, %entry
  store ptr @.str.108, ptr %retval, align 8
  br label %return

if.end:                                           ; preds = %lor.lhs.false
  %3 = load i8, ptr %cmd.addr, align 1
  %idxprom4 = zext i8 %3 to i64
  %arrayidx5 = getelementptr [192 x ptr], ptr @scsi_command_name.names, i64 0, i64 %idxprom4
  %4 = load ptr, ptr %arrayidx5, align 8
  store ptr %4, ptr %retval, align 8
  br label %return

return:                                           ; preds = %if.end, %if.then
  %5 = load ptr, ptr %retval, align 8
  ret ptr %5
}