; Function Attrs: mustprogress nofree norecurse nosync nounwind sspstrong willreturn memory(none) uwtable
define dso_local nonnull ptr @scsi_command_name(i8 noundef zeroext %cmd) local_unnamed_addr #7 {
entry:
  %cmp = icmp ugt i8 %cmd, -65
  br i1 %cmp, label %return, label %lor.lhs.false

lor.lhs.false:                                    ; preds = %entry
  %conv = zext i8 %cmd to i64
  %arrayidx = getelementptr [192 x ptr], ptr @scsi_command_name.names, i64 0, i64 %conv
  %0 = load ptr, ptr %arrayidx, align 8
  %cmp2 = icmp eq ptr %0, null
  %spec.select = select i1 %cmp2, ptr @.str.108, ptr %0
  br label %return

return:                                           ; preds = %lor.lhs.false, %entry
  %retval.0 = phi ptr [ @.str.108, %entry ], [ %spec.select, %lor.lhs.false ]
  ret ptr %retval.0
}